target datalayout = "e-m:e-p270:32:32-p271:32:32-p272:64:64-i64:64-i128:128-f80:128-n8:16:32:64-S128"
target triple = "x86_64-pc-linux-gnu"

%struct.php_unserialize_data = type { ptr, ptr, ptr, ptr, ptr, i64, i64, %struct.var_entries }
%struct.var_entries = type { i64, ptr, [1018 x ptr] }

; Function Attrs: nounwind uwtable
define internal ptr @var_access(ptr noundef %0, i64 noundef %1) #0 {
  %3 = alloca ptr, align 8
  %4 = alloca ptr, align 8
  %5 = alloca i64, align 8
  %6 = alloca ptr, align 8
  store ptr %0, ptr %4, align 8
  store i64 %1, ptr %5, align 8
  %7 = load ptr, ptr %4, align 8
  %8 = load ptr, ptr %7, align 8
  %9 = getelementptr inbounds %struct.php_unserialize_data, ptr %8, i32 0, i32 7
  store ptr %9, ptr %6, align 8
  br label %10

10:                                               ; preds = %23, %2
  %11 = load i64, ptr %5, align 8
  %12 = icmp sge i64 %11, 1018
  br i1 %12, label %13, label %21

13:                                               ; preds = %10
  %14 = load ptr, ptr %6, align 8
  %15 = icmp ne ptr %14, null
  br i1 %15, label %16, label %21

16:                                               ; preds = %13
  %17 = load ptr, ptr %6, align 8
  %18 = getelementptr inbounds %struct.var_entries, ptr %17, i32 0, i32 0
  %19 = load i64, ptr %18, align 8
  %20 = icmp eq i64 %19, 1018
  br label %21

21:                                               ; preds = %16, %13, %10
  %22 = phi i1 [ false, %13 ], [ false, %10 ], [ %20, %16 ]
  br i1 %22, label %23, label %29

23:                                               ; preds = %21
  %24 = load ptr, ptr %6, align 8
  %25 = getelementptr inbounds %struct.var_entries, ptr %24, i32 0, i32 1
  %26 = load ptr, ptr %25, align 8
  store ptr %26, ptr %6, align 8
  %27 = load i64, ptr %5, align 8
  %28 = sub nsw i64 %27, 1018
  store i64 %28, ptr %5, align 8
  br label %10

29:                                               ; preds = %21
  %30 = load ptr, ptr %6, align 8
  %31 = icmp ne ptr %30, null
  br i1 %31, label %33, label %32

32:                                               ; preds = %29
  store ptr null, ptr %3, align 8
  br label %49

33:                                               ; preds = %29
  %34 = load i64, ptr %5, align 8
  %35 = icmp slt i64 %34, 0
  br i1 %35, label %42, label %36

36:                                               ; preds = %33
  %37 = load i64, ptr %5, align 8
  %38 = load ptr, ptr %6, align 8
  %39 = getelementptr inbounds %struct.var_entries, ptr %38, i32 0, i32 0
  %40 = load i64, ptr %39, align 8
  %41 = icmp sge i64 %37, %40
  br i1 %41, label %42, label %43

42:                                               ; preds = %36, %33
  store ptr null, ptr %3, align 8
  br label %49

43:                                               ; preds = %36
  %44 = load ptr, ptr %6, align 8
  %45 = getelementptr inbounds %struct.var_entries, ptr %44, i32 0, i32 2
  %46 = load i64, ptr %5, align 8
  %47 = getelementptr inbounds [1018 x ptr], ptr %45, i64 0, i64 %46
  %48 = load ptr, ptr %47, align 8
  store ptr %48, ptr %3, align 8
  br label %49

49:                                               ; preds = %43, %42, %32
  %50 = load ptr, ptr %3, align 8
  ret ptr %50
}