; Function Attrs: nofree norecurse nosync nounwind memory(read, inaccessiblemem: none) uwtable
define internal fastcc ptr @var_access(ptr nocapture readonly %.0.val, i64 noundef %0) unnamed_addr #7 {
  %2 = getelementptr inbounds i8, ptr %.0.val, i64 56
  %3 = icmp sgt i64 %0, 1017
  br i1 %3, label %.lr.ph, label %.critedge

.lr.ph:                                           ; preds = %1, %6
  %.03 = phi ptr [ %8, %6 ], [ %2, %1 ]
  %.0132 = phi i64 [ %9, %6 ], [ %0, %1 ]
  %4 = load i64, ptr %.03, align 8
  %5 = icmp eq i64 %4, 1018
  br i1 %5, label %6, label %.critedge

6:                                                ; preds = %.lr.ph
  %7 = getelementptr inbounds i8, ptr %.03, i64 8
  %8 = load ptr, ptr %7, align 8
  %9 = add nsw i64 %.0132, -1018
  %10 = icmp sgt i64 %.0132, 2035
  %11 = icmp ne ptr %8, null
  %or.cond = select i1 %10, i1 %11, i1 false
  br i1 %or.cond, label %.lr.ph, label %.critedge

.critedge:                                        ; preds = %.lr.ph, %6, %1
  %.013.lcssa = phi i64 [ %0, %1 ], [ %9, %6 ], [ %.0132, %.lr.ph ]
  %.0.lcssa = phi ptr [ %2, %1 ], [ %8, %6 ], [ %.03, %.lr.ph ]
  %.lcssa = phi i1 [ true, %1 ], [ %11, %6 ], [ true, %.lr.ph ]
  %12 = icmp sgt i64 %.013.lcssa, -1
  %or.cond16.not = and i1 %12, %.lcssa
  br i1 %or.cond16.not, label %13, label %19

13:                                               ; preds = %.critedge
  %14 = load i64, ptr %.0.lcssa, align 8
  %.not = icmp slt i64 %.013.lcssa, %14
  br i1 %.not, label %15, label %19

15:                                               ; preds = %13
  %16 = getelementptr inbounds i8, ptr %.0.lcssa, i64 16
  %17 = getelementptr inbounds [1018 x ptr], ptr %16, i64 0, i64 %.013.lcssa
  %18 = load ptr, ptr %17, align 8
  br label %19

19:                                               ; preds = %13, %.critedge, %15
  %.014 = phi ptr [ %18, %15 ], [ null, %.critedge ], [ null, %13 ]
  ret ptr %.014
}